target datalayout = "e-m:e-p270:32:32-p271:32:32-p272:64:64-i64:64-i128:128-f80:128-n8:16:32:64-S128"
target triple = "x86_64-pc-linux-gnu"

%"class.nlsat::simplify" = type { ptr }
%"struct.nlsat::simplify::imp" = type { ptr, ptr, ptr, %class.ptr_vector, ptr, %class.svector, %class.vector.1 }
%class.ptr_vector = type { %class.vector }
%class.vector = type { ptr }
%class.svector = type { %class.vector.0 }
%class.vector.0 = type { ptr }
%class.vector.1 = type { ptr }

; Function Attrs: mustprogress nounwind uwtable
define linkonce_odr hidden noundef ptr @_ZNSt11__copy_moveILb0ELb1ESt26random_access_iterator_tagE8__copy_mIPN5nlsat6clauseEEEPT_PKS6_S9_S7_(ptr noundef %0, ptr noundef %1, ptr noundef %2) #4 comdat align 2 {
  %4 = alloca ptr, align 8
  %5 = alloca ptr, align 8
  %6 = alloca ptr, align 8
  %7 = alloca i64, align 8
  store ptr %0, ptr %4, align 8, !tbaa !30
  store ptr %1, ptr %5, align 8, !tbaa !30
  store ptr %2, ptr %6, align 8, !tbaa !30
  call void @llvm.lifetime.start.p0(i64 8, ptr %7) #3
  %8 = load ptr, ptr %5, align 8, !tbaa !30
  %9 = load ptr, ptr %4, align 8, !tbaa !30
  %10 = ptrtoint ptr %8 to i64
  %11 = ptrtoint ptr %9 to i64
  %12 = sub i64 %10, %11
  %13 = sdiv exact i64 %12, 8
  store i64 %13, ptr %7, align 8, !tbaa !60
  %14 = load i64, ptr %7, align 8, !tbaa !60
  %15 = icmp ne i64 %14, 0
  br i1 %15, label %16, label %21

16:                                               ; preds = %3
  %17 = load ptr, ptr %6, align 8, !tbaa !30
  %18 = load ptr, ptr %4, align 8, !tbaa !30
  %19 = load i64, ptr %7, align 8, !tbaa !60
  %20 = mul i64 8, %19
  call void @llvm.memmove.p0.p0.i64(ptr align 8 %17, ptr align 8 %18, i64 %20, i1 false)
  br label %21

21:                                               ; preds = %16, %3
  %22 = load ptr, ptr %6, align 8, !tbaa !30
  %23 = load i64, ptr %7, align 8, !tbaa !60
  %24 = getelementptr inbounds ptr, ptr %22, i64 %23
  call void @llvm.lifetime.end.p0(i64 8, ptr %7) #3
  ret ptr %24
}

; Function Attrs: inlinehint mustprogress uwtable
define linkonce_odr hidden noundef ptr @_ZSt14__copy_move_a2ILb0EPKPN5nlsat6clauseEPS2_ET1_T0_S7_S6_(ptr noundef %0, ptr noundef %1, ptr noundef %2) #8 comdat {
  %4 = alloca ptr, align 8
  %5 = alloca ptr, align 8
  %6 = alloca ptr, align 8
  store ptr %0, ptr %4, align 8, !tbaa !30
  store ptr %1, ptr %5, align 8, !tbaa !30
  store ptr %2, ptr %6, align 8, !tbaa !30
  %7 = load ptr, ptr %4, align 8, !tbaa !30
  %8 = load ptr, ptr %5, align 8, !tbaa !30
  %9 = load ptr, ptr %6, align 8, !tbaa !30
  %10 = call noundef ptr @_ZNSt11__copy_moveILb0ELb1ESt26random_access_iterator_tagE8__copy_mIPN5nlsat6clauseEEEPT_PKS6_S9_S7_(ptr noundef %7, ptr noundef %8, ptr noundef %9)
  ret ptr %10
}

; Function Attrs: inlinehint mustprogress nounwind uwtable
define linkonce_odr hidden noundef ptr @_ZSt12__niter_wrapIPPN5nlsat6clauseEET_RKS4_S4_(ptr noundef nonnull align 8 dereferenceable(8) %0, ptr noundef %1) #9 comdat {
  %3 = alloca ptr, align 8
  %4 = alloca ptr, align 8
  store ptr %0, ptr %3, align 8, !tbaa !57
  store ptr %1, ptr %4, align 8, !tbaa !30
  %5 = load ptr, ptr %4, align 8, !tbaa !30
  ret ptr %5
}

; Function Attrs: inlinehint mustprogress uwtable
define linkonce_odr hidden noundef ptr @_ZSt14__copy_move_a1ILb0EPKPN5nlsat6clauseEPS2_ET1_T0_S7_S6_(ptr noundef %0, ptr noundef %1, ptr noundef %2) #8 comdat {
  %4 = alloca ptr, align 8
  %5 = alloca ptr, align 8
  %6 = alloca ptr, align 8
  store ptr %0, ptr %4, align 8, !tbaa !30
  store ptr %1, ptr %5, align 8, !tbaa !30
  store ptr %2, ptr %6, align 8, !tbaa !30
  %7 = load ptr, ptr %4, align 8, !tbaa !30
  %8 = load ptr, ptr %5, align 8, !tbaa !30
  %9 = load ptr, ptr %6, align 8, !tbaa !30
  %10 = call noundef ptr @_ZSt14__copy_move_a2ILb0EPKPN5nlsat6clauseEPS2_ET1_T0_S7_S6_(ptr noundef %7, ptr noundef %8, ptr noundef %9)
  ret ptr %10
}

; Function Attrs: inlinehint mustprogress nounwind uwtable
define linkonce_odr hidden noundef ptr @_ZSt12__niter_baseIPPN5nlsat6clauseEET_S4_(ptr noundef %0) #9 comdat {
  %2 = alloca ptr, align 8
  store ptr %0, ptr %2, align 8, !tbaa !30
  %3 = load ptr, ptr %2, align 8, !tbaa !30
  ret ptr %3
}

; Function Attrs: inlinehint mustprogress nounwind uwtable
define linkonce_odr hidden noundef ptr @_ZSt12__niter_baseIPKPN5nlsat6clauseEET_S5_(ptr noundef %0) #9 comdat {
  %2 = alloca ptr, align 8
  store ptr %0, ptr %2, align 8, !tbaa !30
  %3 = load ptr, ptr %2, align 8, !tbaa !30
  ret ptr %3
}

; Function Attrs: inlinehint mustprogress uwtable
define linkonce_odr hidden noundef ptr @_ZSt13__copy_move_aILb0EPKPN5nlsat6clauseEPS2_ET1_T0_S7_S6_(ptr noundef %0, ptr noundef %1, ptr noundef %2) #8 comdat {
  %4 = alloca ptr, align 8
  %5 = alloca ptr, align 8
  %6 = alloca ptr, align 8
  store ptr %0, ptr %4, align 8, !tbaa !30
  store ptr %1, ptr %5, align 8, !tbaa !30
  store ptr %2, ptr %6, align 8, !tbaa !30
  %7 = load ptr, ptr %4, align 8, !tbaa !30
  %8 = call noundef ptr @_ZSt12__niter_baseIPKPN5nlsat6clauseEET_S5_(ptr noundef %7) #3
  %9 = load ptr, ptr %5, align 8, !tbaa !30
  %10 = call noundef ptr @_ZSt12__niter_baseIPKPN5nlsat6clauseEET_S5_(ptr noundef %9) #3
  %11 = load ptr, ptr %6, align 8, !tbaa !30
  %12 = call noundef ptr @_ZSt12__niter_baseIPPN5nlsat6clauseEET_S4_(ptr noundef %11) #3
  %13 = call noundef ptr @_ZSt14__copy_move_a1ILb0EPKPN5nlsat6clauseEPS2_ET1_T0_S7_S6_(ptr noundef %8, ptr noundef %10, ptr noundef %12)
  %14 = call noundef ptr @_ZSt12__niter_wrapIPPN5nlsat6clauseEET_RKS4_S4_(ptr noundef nonnull align 8 dereferenceable(8) %6, ptr noundef %13)
  ret ptr %14
}

; Function Attrs: inlinehint mustprogress nounwind uwtable
define linkonce_odr hidden noundef ptr @_ZSt12__miter_baseIPKPN5nlsat6clauseEET_S5_(ptr noundef %0) #9 comdat {
  %2 = alloca ptr, align 8
  store ptr %0, ptr %2, align 8, !tbaa !30
  %3 = load ptr, ptr %2, align 8, !tbaa !30
  ret ptr %3
}

; Function Attrs: inlinehint mustprogress uwtable
define linkonce_odr hidden noundef ptr @_ZSt4copyIPKPN5nlsat6clauseEPS2_ET0_T_S7_S6_(ptr noundef %0, ptr noundef %1, ptr noundef %2) #8 comdat {
  %4 = alloca ptr, align 8
  %5 = alloca ptr, align 8
  %6 = alloca ptr, align 8
  store ptr %0, ptr %4, align 8, !tbaa !30
  store ptr %1, ptr %5, align 8, !tbaa !30
  store ptr %2, ptr %6, align 8, !tbaa !30
  %7 = load ptr, ptr %4, align 8, !tbaa !30
  %8 = call noundef ptr @_ZSt12__miter_baseIPKPN5nlsat6clauseEET_S5_(ptr noundef %7)
  %9 = load ptr, ptr %5, align 8, !tbaa !30
  %10 = call noundef ptr @_ZSt12__miter_baseIPKPN5nlsat6clauseEET_S5_(ptr noundef %9)
  %11 = load ptr, ptr %6, align 8, !tbaa !30
  %12 = call noundef ptr @_ZSt13__copy_move_aILb0EPKPN5nlsat6clauseEPS2_ET1_T0_S7_S6_(ptr noundef %8, ptr noundef %10, ptr noundef %11)
  ret ptr %12
}

; Function Attrs: mustprogress uwtable
define linkonce_odr hidden noundef ptr @_ZNSt20__uninitialized_copyILb1EE13__uninit_copyIPKPN5nlsat6clauseEPS4_EET0_T_S9_S8_(ptr noundef %0, ptr noundef %1, ptr noundef %2) #6 comdat align 2 {
  %4 = alloca ptr, align 8
  %5 = alloca ptr, align 8
  %6 = alloca ptr, align 8
  store ptr %0, ptr %4, align 8, !tbaa !30
  store ptr %1, ptr %5, align 8, !tbaa !30
  store ptr %2, ptr %6, align 8, !tbaa !30
  %7 = load ptr, ptr %4, align 8, !tbaa !30
  %8 = load ptr, ptr %5, align 8, !tbaa !30
  %9 = load ptr, ptr %6, align 8, !tbaa !30
  %10 = call noundef ptr @_ZSt4copyIPKPN5nlsat6clauseEPS2_ET0_T_S7_S6_(ptr noundef %7, ptr noundef %8, ptr noundef %9)
  ret ptr %10
}

; Function Attrs: inlinehint mustprogress uwtable
define linkonce_odr hidden noundef ptr @_ZSt18uninitialized_copyIPKPN5nlsat6clauseEPS2_ET0_T_S7_S6_(ptr noundef %0, ptr noundef %1, ptr noundef %2) #8 comdat {
  %4 = alloca ptr, align 8
  %5 = alloca ptr, align 8
  %6 = alloca ptr, align 8
  %7 = alloca i8, align 1
  %8 = alloca i8, align 1
  store ptr %0, ptr %4, align 8, !tbaa !30
  store ptr %1, ptr %5, align 8, !tbaa !30
  store ptr %2, ptr %6, align 8, !tbaa !30
  call void @llvm.lifetime.start.p0(i64 1, ptr %7) #3
  store i8 1, ptr %7, align 1, !tbaa !10
  call void @llvm.lifetime.start.p0(i64 1, ptr %8) #3
  store i8 1, ptr %8, align 1, !tbaa !10
  %9 = load ptr, ptr %4, align 8, !tbaa !30
  %10 = load ptr, ptr %5, align 8, !tbaa !30
  %11 = load ptr, ptr %6, align 8, !tbaa !30
  %12 = call noundef ptr @_ZNSt20__uninitialized_copyILb1EE13__uninit_copyIPKPN5nlsat6clauseEPS4_EET0_T_S9_S8_(ptr noundef %9, ptr noundef %10, ptr noundef %11)
  call void @llvm.lifetime.end.p0(i64 1, ptr %8) #3
  call void @llvm.lifetime.end.p0(i64 1, ptr %7) #3
  ret ptr %12
}

; Function Attrs: mustprogress nounwind uwtable
define linkonce_odr hidden noundef ptr @_ZN6vectorIPN5nlsat6clauseELb0EjE5beginEv(ptr noundef nonnull align 8 dereferenceable(8) %0) #4 comdat align 2 {
  %2 = alloca ptr, align 8
  store ptr %0, ptr %2, align 8, !tbaa !52
  %3 = load ptr, ptr %2, align 8
  %4 = getelementptr inbounds nuw %class.vector, ptr %3, i32 0, i32 0
  %5 = load ptr, ptr %4, align 8, !tbaa !54
  ret ptr %5
}

; Function Attrs: mustprogress nounwind uwtable
define linkonce_odr hidden noundef ptr @_ZNK6vectorIPN5nlsat6clauseELb0EjE3endEv(ptr noundef nonnull align 8 dereferenceable(8) %0) #4 comdat align 2 {
  %2 = alloca ptr, align 8
  store ptr %0, ptr %2, align 8, !tbaa !52
  %3 = load ptr, ptr %2, align 8
  %4 = getelementptr inbounds nuw %class.vector, ptr %3, i32 0, i32 0
  %5 = load ptr, ptr %4, align 8, !tbaa !54
  %6 = call noundef i32 @_ZNK6vectorIPN5nlsat6clauseELb0EjE4sizeEv(ptr noundef nonnull align 8 dereferenceable(8) %3)
  %7 = zext i32 %6 to i64
  %8 = getelementptr inbounds nuw ptr, ptr %5, i64 %7
  ret ptr %8
}

; Function Attrs: mustprogress nounwind uwtable
define linkonce_odr hidden noundef ptr @_ZNK6vectorIPN5nlsat6clauseELb0EjE5beginEv(ptr noundef nonnull align 8 dereferenceable(8) %0) #4 comdat align 2 {
  %2 = alloca ptr, align 8
  store ptr %0, ptr %2, align 8, !tbaa !52
  %3 = load ptr, ptr %2, align 8
  %4 = getelementptr inbounds nuw %class.vector, ptr %3, i32 0, i32 0
  %5 = load ptr, ptr %4, align 8, !tbaa !54
  ret ptr %5
}

; Function Attrs: mustprogress nounwind uwtable
define linkonce_odr hidden noundef i32 @_ZNK6vectorIPN5nlsat6clauseELb0EjE8capacityEv(ptr noundef nonnull align 8 dereferenceable(8) %0) #4 comdat align 2 {
  %2 = alloca i32, align 4
  %3 = alloca ptr, align 8
  store ptr %0, ptr %3, align 8, !tbaa !52
  %4 = load ptr, ptr %3, align 8
  %5 = getelementptr inbounds nuw %class.vector, ptr %4, i32 0, i32 0
  %6 = load ptr, ptr %5, align 8, !tbaa !54
  %7 = icmp eq ptr %6, null
  br i1 %7, label %8, label %9

8:                                                ; preds = %1
  store i32 0, ptr %2, align 4
  br label %14

9:                                                ; preds = %1
  %10 = getelementptr inbounds nuw %class.vector, ptr %4, i32 0, i32 0
  %11 = load ptr, ptr %10, align 8, !tbaa !54
  %12 = getelementptr inbounds i32, ptr %11, i64 -2
  %13 = load i32, ptr %12, align 4, !tbaa !8
  store i32 %13, ptr %2, align 4
  br label %14

14:                                               ; preds = %9, %8
  %15 = load i32, ptr %2, align 4
  ret i32 %15
}

; Function Attrs: mustprogress nounwind uwtable
define linkonce_odr hidden noundef i32 @_ZNK6vectorIPN5nlsat6clauseELb0EjE4sizeEv(ptr noundef nonnull align 8 dereferenceable(8) %0) #4 comdat align 2 {
  %2 = alloca i32, align 4
  %3 = alloca ptr, align 8
  store ptr %0, ptr %3, align 8, !tbaa !52
  %4 = load ptr, ptr %3, align 8
  %5 = getelementptr inbounds nuw %class.vector, ptr %4, i32 0, i32 0
  %6 = load ptr, ptr %5, align 8, !tbaa !54
  %7 = icmp eq ptr %6, null
  br i1 %7, label %8, label %9

8:                                                ; preds = %1
  store i32 0, ptr %2, align 4
  br label %14

9:                                                ; preds = %1
  %10 = getelementptr inbounds nuw %class.vector, ptr %4, i32 0, i32 0
  %11 = load ptr, ptr %10, align 8, !tbaa !54
  %12 = getelementptr inbounds i32, ptr %11, i64 -1
  %13 = load i32, ptr %12, align 4, !tbaa !8
  store i32 %13, ptr %2, align 4
  br label %14

14:                                               ; preds = %9, %8
  %15 = load i32, ptr %2, align 4
  ret i32 %15
}

; Function Attrs: mustprogress uwtable
define linkonce_odr hidden void @_ZN6vectorIPN5nlsat6clauseELb0EjE9copy_coreERKS3_(ptr noundef nonnull align 8 dereferenceable(8) %0, ptr noundef nonnull align 8 dereferenceable(8) %1) #6 comdat align 2 {
  %3 = alloca ptr, align 8
  %4 = alloca ptr, align 8
  %5 = alloca i32, align 4
  %6 = alloca i32, align 4
  %7 = alloca ptr, align 8
  store ptr %0, ptr %3, align 8, !tbaa !52
  store ptr %1, ptr %4, align 8, !tbaa !52
  %8 = load ptr, ptr %3, align 8
  call void @llvm.lifetime.start.p0(i64 4, ptr %5) #3
  %9 = load ptr, ptr %4, align 8, !tbaa !52
  %10 = call noundef i32 @_ZNK6vectorIPN5nlsat6clauseELb0EjE4sizeEv(ptr noundef nonnull align 8 dereferenceable(8) %9)
  store i32 %10, ptr %5, align 4, !tbaa !8
  call void @llvm.lifetime.start.p0(i64 4, ptr %6) #3
  %11 = load ptr, ptr %4, align 8, !tbaa !52
  %12 = call noundef i32 @_ZNK6vectorIPN5nlsat6clauseELb0EjE8capacityEv(ptr noundef nonnull align 8 dereferenceable(8) %11)
  store i32 %12, ptr %6, align 4, !tbaa !8
  call void @llvm.lifetime.start.p0(i64 8, ptr %7) #3
  %13 = load i32, ptr %6, align 4, !tbaa !8
  %14 = zext i32 %13 to i64
  %15 = mul i64 8, %14
  %16 = add i64 %15, 8
  %17 = call noalias noundef ptr @_ZN6memory8allocateEm(i64 noundef %16)
  store ptr %17, ptr %7, align 8, !tbaa !55
  %18 = load i32, ptr %6, align 4, !tbaa !8
  %19 = load ptr, ptr %7, align 8, !tbaa !55
  store i32 %18, ptr %19, align 4, !tbaa !8
  %20 = load ptr, ptr %7, align 8, !tbaa !55
  %21 = getelementptr inbounds nuw i32, ptr %20, i32 1
  store ptr %21, ptr %7, align 8, !tbaa !55
  %22 = load i32, ptr %5, align 4, !tbaa !8
  %23 = load ptr, ptr %7, align 8, !tbaa !55
  store i32 %22, ptr %23, align 4, !tbaa !8
  %24 = load ptr, ptr %7, align 8, !tbaa !55
  %25 = getelementptr inbounds nuw i32, ptr %24, i32 1
  store ptr %25, ptr %7, align 8, !tbaa !55
  %26 = load ptr, ptr %7, align 8, !tbaa !55
  %27 = getelementptr inbounds nuw %class.vector, ptr %8, i32 0, i32 0
  store ptr %26, ptr %27, align 8, !tbaa !54
  %28 = load ptr, ptr %4, align 8, !tbaa !52
  %29 = call noundef ptr @_ZNK6vectorIPN5nlsat6clauseELb0EjE5beginEv(ptr noundef nonnull align 8 dereferenceable(8) %28)
  %30 = load ptr, ptr %4, align 8, !tbaa !52
  %31 = call noundef ptr @_ZNK6vectorIPN5nlsat6clauseELb0EjE3endEv(ptr noundef nonnull align 8 dereferenceable(8) %30)
  %32 = call noundef ptr @_ZN6vectorIPN5nlsat6clauseELb0EjE5beginEv(ptr noundef nonnull align 8 dereferenceable(8) %8)
  %33 = call noundef ptr @_ZSt18uninitialized_copyIPKPN5nlsat6clauseEPS2_ET0_T_S7_S6_(ptr noundef %29, ptr noundef %31, ptr noundef %32)
  call void @llvm.lifetime.end.p0(i64 8, ptr %7) #3
  call void @llvm.lifetime.end.p0(i64 4, ptr %6) #3
  call void @llvm.lifetime.end.p0(i64 4, ptr %5) #3
  ret void
}

; Function Attrs: mustprogress nounwind uwtable
define linkonce_odr hidden void @_ZN6vectorIN3sat7literalELb0EjEC2Ev(ptr noundef nonnull align 8 dereferenceable(8) %0) unnamed_addr #4 comdat align 2 {
  %2 = alloca ptr, align 8
  store ptr %0, ptr %2, align 8, !tbaa !62
  %3 = load ptr, ptr %2, align 8
  %4 = getelementptr inbounds nuw %class.vector.0, ptr %3, i32 0, i32 0
  store ptr null, ptr %4, align 8, !tbaa !64
  ret void
}

; Function Attrs: mustprogress uwtable
define linkonce_odr hidden void @_ZN6vectorIPN5nlsat6clauseELb0EjEC2ERKS3_(ptr noundef nonnull align 8 dereferenceable(8) %0, ptr noundef nonnull align 8 dereferenceable(8) %1) unnamed_addr #6 comdat align 2 {
  %3 = alloca ptr, align 8
  %4 = alloca ptr, align 8
  store ptr %0, ptr %3, align 8, !tbaa !52
  store ptr %1, ptr %4, align 8, !tbaa !52
  %5 = load ptr, ptr %3, align 8
  %6 = getelementptr inbounds nuw %class.vector, ptr %5, i32 0, i32 0
  store ptr null, ptr %6, align 8, !tbaa !54
  %7 = load ptr, ptr %4, align 8, !tbaa !52
  %8 = getelementptr inbounds nuw %class.vector, ptr %7, i32 0, i32 0
  %9 = load ptr, ptr %8, align 8, !tbaa !54
  %10 = icmp ne ptr %9, null
  br i1 %10, label %11, label %13

11:                                               ; preds = %2
  %12 = load ptr, ptr %4, align 8, !tbaa !52
  call void @_ZN6vectorIPN5nlsat6clauseELb0EjE9copy_coreERKS3_(ptr noundef nonnull align 8 dereferenceable(8) %5, ptr noundef nonnull align 8 dereferenceable(8) %12)
  br label %13

13:                                               ; preds = %11, %2
  ret void
}

; Function Attrs: mustprogress nounwind uwtable
define linkonce_odr hidden void @_ZN6vectorI10ptr_vectorIN5nlsat6clauseEELb1EjEC2Ev(ptr noundef nonnull align 8 dereferenceable(8) %0) unnamed_addr #4 comdat align 2 {
  %2 = alloca ptr, align 8
  store ptr %0, ptr %2, align 8, !tbaa !49
  %3 = load ptr, ptr %2, align 8
  %4 = getelementptr inbounds nuw %class.vector.1, ptr %3, i32 0, i32 0
  store ptr null, ptr %4, align 8, !tbaa !51
  ret void
}

; Function Attrs: mustprogress nounwind uwtable
define linkonce_odr hidden void @_ZN7svectorIN3sat7literalEjEC2Ev(ptr noundef nonnull align 8 dereferenceable(8) %0) unnamed_addr #4 comdat align 2 {
  %2 = alloca ptr, align 8
  store ptr %0, ptr %2, align 8, !tbaa !47
  %3 = load ptr, ptr %2, align 8
  call void @_ZN6vectorIN3sat7literalELb0EjEC2Ev(ptr noundef nonnull align 8 dereferenceable(8) %3) #3
  ret void
}

; Function Attrs: inlinehint mustprogress uwtable
define linkonce_odr hidden void @_ZN10ptr_vectorIN5nlsat6clauseEEC2ERKS2_(ptr noundef nonnull align 8 dereferenceable(8) %0, ptr noundef nonnull align 8 dereferenceable(8) %1) unnamed_addr #8 comdat align 2 {
  %3 = alloca ptr, align 8
  %4 = alloca ptr, align 8
  store ptr %0, ptr %3, align 8, !tbaa !22
  store ptr %1, ptr %4, align 8, !tbaa !22
  %5 = load ptr, ptr %3, align 8
  %6 = load ptr, ptr %4, align 8, !tbaa !22
  call void @_ZN6vectorIPN5nlsat6clauseELb0EjEC2ERKS3_(ptr noundef nonnull align 8 dereferenceable(8) %5, ptr noundef nonnull align 8 dereferenceable(8) %6)
  ret void
}

; Function Attrs: mustprogress uwtable
define linkonce_odr hidden void @_ZN5nlsat8simplify3impC2ERNS_6solverER10ptr_vectorINS_4atomEERS4_INS_6clauseEESA_RN10polynomial7managerE(ptr noundef nonnull align 8 dereferenceable(56) %0, ptr noundef nonnull align 8 dereferenceable(16) %1, ptr noundef nonnull align 8 dereferenceable(8) %2, ptr noundef nonnull align 8 dereferenceable(8) %3, ptr noundef nonnull align 8 dereferenceable(8) %4, ptr noundef nonnull align 8 dereferenceable(8) %5) unnamed_addr #6 comdat align 2 {
  %7 = alloca ptr, align 8
  %8 = alloca ptr, align 8
  %9 = alloca ptr, align 8
  %10 = alloca ptr, align 8
  %11 = alloca ptr, align 8
  %12 = alloca ptr, align 8
  store ptr %0, ptr %7, align 8, !tbaa !29
  store ptr %1, ptr %8, align 8, !tbaa !18
  store ptr %2, ptr %9, align 8, !tbaa !20
  store ptr %3, ptr %10, align 8, !tbaa !22
  store ptr %4, ptr %11, align 8, !tbaa !22
  store ptr %5, ptr %12, align 8, !tbaa !24
  %13 = load ptr, ptr %7, align 8
  %14 = getelementptr inbounds nuw %"struct.nlsat::simplify::imp", ptr %13, i32 0, i32 0
  %15 = load ptr, ptr %8, align 8, !tbaa !18
  store ptr %15, ptr %14, align 8, !tbaa !18
  %16 = getelementptr inbounds nuw %"struct.nlsat::simplify::imp", ptr %13, i32 0, i32 1
  %17 = load ptr, ptr %9, align 8, !tbaa !20
  store ptr %17, ptr %16, align 8, !tbaa !20
  %18 = getelementptr inbounds nuw %"struct.nlsat::simplify::imp", ptr %13, i32 0, i32 2
  %19 = load ptr, ptr %10, align 8, !tbaa !22
  store ptr %19, ptr %18, align 8, !tbaa !22
  %20 = getelementptr inbounds nuw %"struct.nlsat::simplify::imp", ptr %13, i32 0, i32 3
  %21 = load ptr, ptr %11, align 8, !tbaa !22
  call void @_ZN10ptr_vectorIN5nlsat6clauseEEC2ERKS2_(ptr noundef nonnull align 8 dereferenceable(8) %20, ptr noundef nonnull align 8 dereferenceable(8) %21)
  %22 = getelementptr inbounds nuw %"struct.nlsat::simplify::imp", ptr %13, i32 0, i32 4
  %23 = load ptr, ptr %12, align 8, !tbaa !24
  store ptr %23, ptr %22, align 8, !tbaa !24
  %24 = getelementptr inbounds nuw %"struct.nlsat::simplify::imp", ptr %13, i32 0, i32 5
  call void @_ZN7svectorIN3sat7literalEjEC2Ev(ptr noundef nonnull align 8 dereferenceable(8) %24) #3
  %25 = getelementptr inbounds nuw %"struct.nlsat::simplify::imp", ptr %13, i32 0, i32 6
  call void @_ZN6vectorI10ptr_vectorIN5nlsat6clauseEELb1EjEC2Ev(ptr noundef nonnull align 8 dereferenceable(8) %25) #3
  ret void
}

; Function Attrs: mustprogress uwtable
define hidden void @_ZN5nlsat8simplifyC2ERNS_6solverER10ptr_vectorINS_4atomEERS3_INS_6clauseEES9_RN10polynomial7managerE(ptr noundef nonnull align 8 dereferenceable(8) %0, ptr noundef nonnull align 8 dereferenceable(16) %1, ptr noundef nonnull align 8 dereferenceable(8) %2, ptr noundef nonnull align 8 dereferenceable(8) %3, ptr noundef nonnull align 8 dereferenceable(8) %4, ptr noundef nonnull align 8 dereferenceable(8) %5) unnamed_addr #6 align 2 {
  %7 = alloca ptr, align 8
  %8 = alloca ptr, align 8
  %9 = alloca ptr, align 8
  %10 = alloca ptr, align 8
  %11 = alloca ptr, align 8
  %12 = alloca ptr, align 8
  store ptr %0, ptr %7, align 8, !tbaa !16
  store ptr %1, ptr %8, align 8, !tbaa !18
  store ptr %2, ptr %9, align 8, !tbaa !20
  store ptr %3, ptr %10, align 8, !tbaa !22
  store ptr %4, ptr %11, align 8, !tbaa !22
  store ptr %5, ptr %12, align 8, !tbaa !24
  %13 = load ptr, ptr %7, align 8
  %14 = call noalias noundef ptr @_ZN6memory8allocateEm(i64 noundef 56)
  %15 = load ptr, ptr %8, align 8, !tbaa !18
  %16 = load ptr, ptr %9, align 8, !tbaa !20
  %17 = load ptr, ptr %10, align 8, !tbaa !22
  %18 = load ptr, ptr %11, align 8, !tbaa !22
  %19 = load ptr, ptr %12, align 8, !tbaa !24
  call void @_ZN5nlsat8simplify3impC2ERNS_6solverER10ptr_vectorINS_4atomEERS4_INS_6clauseEESA_RN10polynomial7managerE(ptr noundef nonnull align 8 dereferenceable(56) %14, ptr noundef nonnull align 8 dereferenceable(16) %15, ptr noundef nonnull align 8 dereferenceable(8) %16, ptr noundef nonnull align 8 dereferenceable(8) %17, ptr noundef nonnull align 8 dereferenceable(8) %18, ptr noundef nonnull align 8 dereferenceable(8) %19)
  %20 = getelementptr inbounds nuw %"class.nlsat::simplify", ptr %13, i32 0, i32 0
  store ptr %14, ptr %20, align 8, !tbaa !26
  ret void
}