; Function Attrs: mustprogress uwtable
define hidden void @_ZN5nlsat8simplifyC2ERNS_6solverER10ptr_vectorINS_4atomEERS3_INS_6clauseEES9_RN10polynomial7managerE(ptr noundef nonnull writeonly align 8 captures(none) dereferenceable(8) initializes((0, 8)) %0, ptr noundef nonnull align 8 dereferenceable(16) %1, ptr noundef nonnull align 8 dereferenceable(8) %2, ptr noundef nonnull align 8 dereferenceable(8) %3, ptr noundef nonnull readonly align 8 captures(none) dereferenceable(8) %4, ptr noundef nonnull align 8 dereferenceable(8) %5) unnamed_addr #4 align 2 {
  %7 = tail call noalias noundef ptr @_ZN6memory8allocateEm(i64 noundef 56)
  store ptr %1, ptr %7, align 8, !tbaa !3
  %8 = getelementptr inbounds nuw i8, ptr %7, i64 8
  store ptr %2, ptr %8, align 8, !tbaa !8
  %9 = getelementptr inbounds nuw i8, ptr %7, i64 16
  store ptr %3, ptr %9, align 8, !tbaa !10
  %10 = getelementptr inbounds nuw i8, ptr %7, i64 24
  store ptr null, ptr %10, align 8, !tbaa !12
  %11 = load ptr, ptr %4, align 8, !tbaa !12
  %.not.i.i.i = icmp eq ptr %11, null
  br i1 %.not.i.i.i, label %_ZN5nlsat8simplify3impC2ERNS_6solverER10ptr_vectorINS_4atomEERS4_INS_6clauseEESA_RN10polynomial7managerE.exit, label %_ZNK6vectorIPN5nlsat6clauseELb0EjE8capacityEv.exit.i.i.i.i

_ZNK6vectorIPN5nlsat6clauseELb0EjE8capacityEv.exit.i.i.i.i: ; preds = %6
  %12 = getelementptr inbounds i8, ptr %11, i64 -4
  %13 = load i32, ptr %12, align 4, !tbaa !16
  %14 = getelementptr inbounds i8, ptr %11, i64 -8
  %15 = load i32, ptr %14, align 4, !tbaa !16
  %16 = zext i32 %15 to i64
  %17 = shl nuw nsw i64 %16, 3
  %18 = add nuw nsw i64 %17, 8
  %19 = tail call noalias noundef ptr @_ZN6memory8allocateEm(i64 noundef %18)
  store i32 %15, ptr %19, align 4, !tbaa !16
  %20 = getelementptr inbounds nuw i8, ptr %19, i64 4
  store i32 %13, ptr %20, align 4, !tbaa !16
  %21 = getelementptr inbounds nuw i8, ptr %19, i64 8
  store ptr %21, ptr %10, align 8, !tbaa !12
  %22 = load ptr, ptr %4, align 8, !tbaa !12
  %23 = icmp eq ptr %22, null
  br i1 %23, label %_ZN5nlsat8simplify3impC2ERNS_6solverER10ptr_vectorINS_4atomEERS4_INS_6clauseEESA_RN10polynomial7managerE.exit, label %_ZNK6vectorIPN5nlsat6clauseELb0EjE3endEv.exit.i.i.i.i

_ZNK6vectorIPN5nlsat6clauseELb0EjE3endEv.exit.i.i.i.i: ; preds = %_ZNK6vectorIPN5nlsat6clauseELb0EjE8capacityEv.exit.i.i.i.i
  %24 = getelementptr inbounds i8, ptr %22, i64 -4
  %25 = load i32, ptr %24, align 4, !tbaa !16
  %.not.i.i.i.i.i.i.i.i.i.i.i = icmp eq i32 %25, 0
  br i1 %.not.i.i.i.i.i.i.i.i.i.i.i, label %_ZN5nlsat8simplify3impC2ERNS_6solverER10ptr_vectorINS_4atomEERS4_INS_6clauseEESA_RN10polynomial7managerE.exit, label %26

26:                                               ; preds = %_ZNK6vectorIPN5nlsat6clauseELb0EjE3endEv.exit.i.i.i.i
  %27 = zext i32 %25 to i64
  %28 = shl nuw nsw i64 %27, 3
  tail call void @llvm.memmove.p0.p0.i64(ptr nonnull align 8 %21, ptr nonnull align 8 %22, i64 %28, i1 false)
  br label %_ZN5nlsat8simplify3impC2ERNS_6solverER10ptr_vectorINS_4atomEERS4_INS_6clauseEESA_RN10polynomial7managerE.exit

_ZN5nlsat8simplify3impC2ERNS_6solverER10ptr_vectorINS_4atomEERS4_INS_6clauseEESA_RN10polynomial7managerE.exit: ; preds = %6, %_ZNK6vectorIPN5nlsat6clauseELb0EjE8capacityEv.exit.i.i.i.i, %_ZNK6vectorIPN5nlsat6clauseELb0EjE3endEv.exit.i.i.i.i, %26
  %29 = getelementptr inbounds nuw i8, ptr %7, i64 32
  store ptr %5, ptr %29, align 8, !tbaa !18
  %30 = getelementptr inbounds nuw i8, ptr %7, i64 40
  tail call void @llvm.memset.p0.i64(ptr noundef nonnull align 8 dereferenceable(16) %30, i8 0, i64 16, i1 false)
  store ptr %7, ptr %0, align 8, !tbaa !20
  ret void
}